target datalayout = "e-m:e-p270:32:32-p271:32:32-p272:64:64-i64:64-i128:128-f80:128-n8:16:32:64-S128"
target triple = "x86_64-pc-linux-gnu"

%struct.Jf_Cut_t_ = type { i64, float, i32, i32, i32, [10 x i32] }

; Function Attrs: nounwind uwtable
define float @Jf_CutCompareArea(ptr noundef %0, ptr noundef %1) #0 {
  %3 = alloca float, align 4
  %4 = alloca ptr, align 8
  %5 = alloca ptr, align 8
  store ptr %0, ptr %4, align 8, !tbaa !136
  store ptr %1, ptr %5, align 8, !tbaa !136
  %6 = load ptr, ptr %4, align 8, !tbaa !136
  %7 = getelementptr inbounds nuw %struct.Jf_Cut_t_, ptr %6, i32 0, i32 1
  %8 = load float, ptr %7, align 8, !tbaa !153
  %9 = fpext float %8 to double
  %10 = load ptr, ptr %5, align 8, !tbaa !136
  %11 = getelementptr inbounds nuw %struct.Jf_Cut_t_, ptr %10, i32 0, i32 1
  %12 = load float, ptr %11, align 8, !tbaa !153
  %13 = fpext float %12 to double
  %14 = fsub double %13, 5.000000e-03
  %15 = fcmp olt double %9, %14
  br i1 %15, label %16, label %17

16:                                               ; preds = %2
  store float -1.000000e+00, ptr %3, align 4
  br label %68

17:                                               ; preds = %2
  %18 = load ptr, ptr %4, align 8, !tbaa !136
  %19 = getelementptr inbounds nuw %struct.Jf_Cut_t_, ptr %18, i32 0, i32 1
  %20 = load float, ptr %19, align 8, !tbaa !153
  %21 = fpext float %20 to double
  %22 = load ptr, ptr %5, align 8, !tbaa !136
  %23 = getelementptr inbounds nuw %struct.Jf_Cut_t_, ptr %22, i32 0, i32 1
  %24 = load float, ptr %23, align 8, !tbaa !153
  %25 = fpext float %24 to double
  %26 = fadd double %25, 5.000000e-03
  %27 = fcmp ogt double %21, %26
  br i1 %27, label %28, label %29

28:                                               ; preds = %17
  store float 1.000000e+00, ptr %3, align 4
  br label %68

29:                                               ; preds = %17
  %30 = load ptr, ptr %4, align 8, !tbaa !136
  %31 = getelementptr inbounds nuw %struct.Jf_Cut_t_, ptr %30, i32 0, i32 5
  %32 = getelementptr inbounds [10 x i32], ptr %31, i64 0, i64 0
  %33 = load i32, ptr %32, align 8, !tbaa !7
  %34 = load ptr, ptr %5, align 8, !tbaa !136
  %35 = getelementptr inbounds nuw %struct.Jf_Cut_t_, ptr %34, i32 0, i32 5
  %36 = getelementptr inbounds [10 x i32], ptr %35, i64 0, i64 0
  %37 = load i32, ptr %36, align 8, !tbaa !7
  %38 = icmp ne i32 %33, %37
  br i1 %38, label %39, label %50

39:                                               ; preds = %29
  %40 = load ptr, ptr %4, align 8, !tbaa !136
  %41 = getelementptr inbounds nuw %struct.Jf_Cut_t_, ptr %40, i32 0, i32 5
  %42 = getelementptr inbounds [10 x i32], ptr %41, i64 0, i64 0
  %43 = load i32, ptr %42, align 8, !tbaa !7
  %44 = load ptr, ptr %5, align 8, !tbaa !136
  %45 = getelementptr inbounds nuw %struct.Jf_Cut_t_, ptr %44, i32 0, i32 5
  %46 = getelementptr inbounds [10 x i32], ptr %45, i64 0, i64 0
  %47 = load i32, ptr %46, align 8, !tbaa !7
  %48 = sub nsw i32 %43, %47
  %49 = sitofp i32 %48 to float
  store float %49, ptr %3, align 4
  br label %68

50:                                               ; preds = %29
  %51 = load ptr, ptr %4, align 8, !tbaa !136
  %52 = getelementptr inbounds nuw %struct.Jf_Cut_t_, ptr %51, i32 0, i32 2
  %53 = load i32, ptr %52, align 4, !tbaa !152
  %54 = load ptr, ptr %5, align 8, !tbaa !136
  %55 = getelementptr inbounds nuw %struct.Jf_Cut_t_, ptr %54, i32 0, i32 2
  %56 = load i32, ptr %55, align 4, !tbaa !152
  %57 = icmp ne i32 %53, %56
  br i1 %57, label %58, label %67

58:                                               ; preds = %50
  %59 = load ptr, ptr %4, align 8, !tbaa !136
  %60 = getelementptr inbounds nuw %struct.Jf_Cut_t_, ptr %59, i32 0, i32 2
  %61 = load i32, ptr %60, align 4, !tbaa !152
  %62 = load ptr, ptr %5, align 8, !tbaa !136
  %63 = getelementptr inbounds nuw %struct.Jf_Cut_t_, ptr %62, i32 0, i32 2
  %64 = load i32, ptr %63, align 4, !tbaa !152
  %65 = sub nsw i32 %61, %64
  %66 = sitofp i32 %65 to float
  store float %66, ptr %3, align 4
  br label %68

67:                                               ; preds = %50
  store float 0.000000e+00, ptr %3, align 4
  br label %68

68:                                               ; preds = %67, %58, %39, %28, %16
  %69 = load float, ptr %3, align 4
  ret float %69
}