; Function Attrs: mustprogress nofree norecurse nosync nounwind willreturn memory(argmem: read) uwtable
define float @Jf_CutCompareArea(ptr noundef readonly captures(none) %0, ptr noundef readonly captures(none) %1) #12 {
  %3 = getelementptr inbounds nuw i8, ptr %0, i64 8
  %4 = load float, ptr %3, align 8, !tbaa !145
  %5 = fpext float %4 to double
  %6 = getelementptr inbounds nuw i8, ptr %1, i64 8
  %7 = load float, ptr %6, align 8, !tbaa !145
  %8 = fpext float %7 to double
  %9 = fadd double %8, -5.000000e-03
  %10 = fcmp ogt double %9, %5
  br i1 %10, label %30, label %11

11:                                               ; preds = %2
  %12 = fadd double %8, 5.000000e-03
  %13 = fcmp olt double %12, %5
  br i1 %13, label %30, label %14

14:                                               ; preds = %11
  %15 = getelementptr inbounds nuw i8, ptr %0, i64 24
  %16 = load i32, ptr %15, align 8, !tbaa !14
  %17 = getelementptr inbounds nuw i8, ptr %1, i64 24
  %18 = load i32, ptr %17, align 8, !tbaa !14
  %.not = icmp eq i32 %16, %18
  br i1 %.not, label %22, label %19

19:                                               ; preds = %14
  %20 = sub nsw i32 %16, %18
  %21 = sitofp i32 %20 to float
  br label %30

22:                                               ; preds = %14
  %23 = getelementptr inbounds nuw i8, ptr %0, i64 12
  %24 = load i32, ptr %23, align 4, !tbaa !144
  %25 = getelementptr inbounds nuw i8, ptr %1, i64 12
  %26 = load i32, ptr %25, align 4, !tbaa !144
  %.not18 = icmp eq i32 %24, %26
  br i1 %.not18, label %30, label %27

27:                                               ; preds = %22
  %28 = sub nsw i32 %24, %26
  %29 = sitofp i32 %28 to float
  br label %30

30:                                               ; preds = %22, %11, %2, %27, %19
  %.0 = phi float [ %21, %19 ], [ %29, %27 ], [ -1.000000e+00, %2 ], [ 1.000000e+00, %11 ], [ 0.000000e+00, %22 ]
  ret float %.0
}